target datalayout = "e-m:e-p270:32:32-p271:32:32-p272:64:64-i64:64-i128:128-f80:128-n8:16:32:64-S128"
target triple = "x86_64-pc-linux-gnu"

%struct.Curl_llist_node = type { ptr, ptr, ptr, ptr }
%struct.Curl_llist = type { ptr, ptr, ptr, i64 }
%struct.CookieInfo = type { [63 x %struct.Curl_llist], i64, i32, i32, i8 }
%struct.Cookie = type { %struct.Curl_llist_node, %struct.Curl_llist_node, ptr, ptr, ptr, ptr, ptr, i64, i32, i8 }

@Curl_cfree = external global ptr, align 8

; Function Attrs: nounwind uwtable
define internal void @freecookie(ptr noundef %0) #0 {
  %2 = alloca ptr, align 8
  store ptr %0, ptr %2, align 8, !tbaa !103
  %3 = load ptr, ptr @Curl_cfree, align 8, !tbaa !92
  %4 = load ptr, ptr %2, align 8, !tbaa !103
  %5 = getelementptr inbounds nuw %struct.Cookie, ptr %4, i32 0, i32 6
  %6 = load ptr, ptr %5, align 8, !tbaa !110
  call void %3(ptr noundef %6)
  %7 = load ptr, ptr @Curl_cfree, align 8, !tbaa !92
  %8 = load ptr, ptr %2, align 8, !tbaa !103
  %9 = getelementptr inbounds nuw %struct.Cookie, ptr %8, i32 0, i32 4
  %10 = load ptr, ptr %9, align 8, !tbaa !105
  call void %7(ptr noundef %10)
  %11 = load ptr, ptr @Curl_cfree, align 8, !tbaa !92
  %12 = load ptr, ptr %2, align 8, !tbaa !103
  %13 = getelementptr inbounds nuw %struct.Cookie, ptr %12, i32 0, i32 5
  %14 = load ptr, ptr %13, align 8, !tbaa !119
  call void %11(ptr noundef %14)
  %15 = load ptr, ptr @Curl_cfree, align 8, !tbaa !92
  %16 = load ptr, ptr %2, align 8, !tbaa !103
  %17 = getelementptr inbounds nuw %struct.Cookie, ptr %16, i32 0, i32 2
  %18 = load ptr, ptr %17, align 8, !tbaa !112
  call void %15(ptr noundef %18)
  %19 = load ptr, ptr @Curl_cfree, align 8, !tbaa !92
  %20 = load ptr, ptr %2, align 8, !tbaa !103
  %21 = getelementptr inbounds nuw %struct.Cookie, ptr %20, i32 0, i32 3
  %22 = load ptr, ptr %21, align 8, !tbaa !113
  call void %19(ptr noundef %22)
  %23 = load ptr, ptr @Curl_cfree, align 8, !tbaa !92
  %24 = load ptr, ptr %2, align 8, !tbaa !103
  call void %23(ptr noundef %24)
  ret void
}

; Function Attrs: nounwind uwtable
define internal void @remove_expired(ptr noundef %0) #0 {
  %2 = alloca ptr, align 8
  %3 = alloca ptr, align 8
  %4 = alloca i64, align 8
  %5 = alloca i32, align 4
  %6 = alloca i32, align 4
  %7 = alloca ptr, align 8
  %8 = alloca ptr, align 8
  store ptr %0, ptr %2, align 8, !tbaa !81
  call void @llvm.lifetime.start.p0(i64 8, ptr %3) #6
  call void @llvm.lifetime.start.p0(i64 8, ptr %4) #6
  %9 = call i64 @time(ptr noundef null) #6
  store i64 %9, ptr %4, align 8, !tbaa !111
  call void @llvm.lifetime.start.p0(i64 4, ptr %5) #6
  %10 = load i64, ptr %4, align 8, !tbaa !111
  %11 = load ptr, ptr %2, align 8, !tbaa !81
  %12 = getelementptr inbounds nuw %struct.CookieInfo, ptr %11, i32 0, i32 1
  %13 = load i64, ptr %12, align 8, !tbaa !95
  %14 = icmp slt i64 %10, %13
  br i1 %14, label %15, label %21

15:                                               ; preds = %1
  %16 = load ptr, ptr %2, align 8, !tbaa !81
  %17 = getelementptr inbounds nuw %struct.CookieInfo, ptr %16, i32 0, i32 1
  %18 = load i64, ptr %17, align 8, !tbaa !95
  %19 = icmp ne i64 %18, 9223372036854775807
  br i1 %19, label %20, label %21

20:                                               ; preds = %15
  store i32 1, ptr %6, align 4
  br label %88

21:                                               ; preds = %15, %1
  %22 = load ptr, ptr %2, align 8, !tbaa !81
  %23 = getelementptr inbounds nuw %struct.CookieInfo, ptr %22, i32 0, i32 1
  store i64 9223372036854775807, ptr %23, align 8, !tbaa !95
  br label %24

24:                                               ; preds = %21
  store i32 0, ptr %5, align 4, !tbaa !93
  br label %25

25:                                               ; preds = %84, %24
  %26 = load i32, ptr %5, align 4, !tbaa !93
  %27 = icmp ult i32 %26, 63
  br i1 %27, label %28, label %87

28:                                               ; preds = %25
  call void @llvm.lifetime.start.p0(i64 8, ptr %7) #6
  call void @llvm.lifetime.start.p0(i64 8, ptr %8) #6
  store ptr null, ptr %8, align 8, !tbaa !123
  %29 = load ptr, ptr %2, align 8, !tbaa !81
  %30 = getelementptr inbounds nuw %struct.CookieInfo, ptr %29, i32 0, i32 0
  %31 = load i32, ptr %5, align 4, !tbaa !93
  %32 = zext i32 %31 to i64
  %33 = getelementptr inbounds nuw [63 x %struct.Curl_llist], ptr %30, i64 0, i64 %32
  %34 = call ptr @Curl_llist_head(ptr noundef %33)
  store ptr %34, ptr %7, align 8, !tbaa !123
  br label %35

35:                                               ; preds = %81, %28
  %36 = load ptr, ptr %7, align 8, !tbaa !123
  %37 = icmp ne ptr %36, null
  br i1 %37, label %38, label %83

38:                                               ; preds = %35
  %39 = load ptr, ptr %7, align 8, !tbaa !123
  %40 = call ptr @Curl_node_elem(ptr noundef %39)
  store ptr %40, ptr %3, align 8, !tbaa !103
  %41 = load ptr, ptr %7, align 8, !tbaa !123
  %42 = call ptr @Curl_node_next(ptr noundef %41)
  store ptr %42, ptr %8, align 8, !tbaa !123
  %43 = load ptr, ptr %3, align 8, !tbaa !103
  %44 = getelementptr inbounds nuw %struct.Cookie, ptr %43, i32 0, i32 7
  %45 = load i64, ptr %44, align 8, !tbaa !107
  %46 = icmp ne i64 %45, 0
  br i1 %46, label %47, label %60

47:                                               ; preds = %38
  %48 = load ptr, ptr %3, align 8, !tbaa !103
  %49 = getelementptr inbounds nuw %struct.Cookie, ptr %48, i32 0, i32 7
  %50 = load i64, ptr %49, align 8, !tbaa !107
  %51 = load i64, ptr %4, align 8, !tbaa !111
  %52 = icmp slt i64 %50, %51
  br i1 %52, label %53, label %60

53:                                               ; preds = %47
  %54 = load ptr, ptr %7, align 8, !tbaa !123
  call void @Curl_node_remove(ptr noundef %54)
  %55 = load ptr, ptr %3, align 8, !tbaa !103
  call void @freecookie(ptr noundef %55)
  %56 = load ptr, ptr %2, align 8, !tbaa !81
  %57 = getelementptr inbounds nuw %struct.CookieInfo, ptr %56, i32 0, i32 2
  %58 = load i32, ptr %57, align 8, !tbaa !114
  %59 = add i32 %58, -1
  store i32 %59, ptr %57, align 8, !tbaa !114
  br label %80

60:                                               ; preds = %47, %38
  %61 = load ptr, ptr %3, align 8, !tbaa !103
  %62 = getelementptr inbounds nuw %struct.Cookie, ptr %61, i32 0, i32 7
  %63 = load i64, ptr %62, align 8, !tbaa !107
  %64 = icmp ne i64 %63, 0
  br i1 %64, label %65, label %79

65:                                               ; preds = %60
  %66 = load ptr, ptr %3, align 8, !tbaa !103
  %67 = getelementptr inbounds nuw %struct.Cookie, ptr %66, i32 0, i32 7
  %68 = load i64, ptr %67, align 8, !tbaa !107
  %69 = load ptr, ptr %2, align 8, !tbaa !81
  %70 = getelementptr inbounds nuw %struct.CookieInfo, ptr %69, i32 0, i32 1
  %71 = load i64, ptr %70, align 8, !tbaa !95
  %72 = icmp slt i64 %68, %71
  br i1 %72, label %73, label %79

73:                                               ; preds = %65
  %74 = load ptr, ptr %3, align 8, !tbaa !103
  %75 = getelementptr inbounds nuw %struct.Cookie, ptr %74, i32 0, i32 7
  %76 = load i64, ptr %75, align 8, !tbaa !107
  %77 = load ptr, ptr %2, align 8, !tbaa !81
  %78 = getelementptr inbounds nuw %struct.CookieInfo, ptr %77, i32 0, i32 1
  store i64 %76, ptr %78, align 8, !tbaa !95
  br label %79

79:                                               ; preds = %73, %65, %60
  br label %80

80:                                               ; preds = %79, %53
  br label %81

81:                                               ; preds = %80
  %82 = load ptr, ptr %8, align 8, !tbaa !123
  store ptr %82, ptr %7, align 8, !tbaa !123
  br label %35, !llvm.loop !124

83:                                               ; preds = %35
  call void @llvm.lifetime.end.p0(i64 8, ptr %8) #6
  call void @llvm.lifetime.end.p0(i64 8, ptr %7) #6
  br label %84

84:                                               ; preds = %83
  %85 = load i32, ptr %5, align 4, !tbaa !93
  %86 = add i32 %85, 1
  store i32 %86, ptr %5, align 4, !tbaa !93
  br label %25, !llvm.loop !125

87:                                               ; preds = %25
  store i32 0, ptr %6, align 4
  br label %88

88:                                               ; preds = %87, %20
  call void @llvm.lifetime.end.p0(i64 4, ptr %5) #6
  call void @llvm.lifetime.end.p0(i64 8, ptr %4) #6
  call void @llvm.lifetime.end.p0(i64 8, ptr %3) #6
  %89 = load i32, ptr %6, align 4
  switch i32 %89, label %91 [
    i32 0, label %90
    i32 1, label %90
  ]

90:                                               ; preds = %88, %88
  ret void

91:                                               ; preds = %88
  unreachable
}