; Function Attrs: nounwind uwtable
define internal fastcc void @remove_expired(ptr noundef %0) unnamed_addr #0 {
  %2 = tail call i64 @time(ptr noundef null) #12
  %3 = getelementptr inbounds nuw i8, ptr %0, i64 2016
  %4 = load i64, ptr %3, align 8, !tbaa !86
  %5 = icmp sge i64 %2, %4
  %.not = icmp eq i64 %4, 9223372036854775807
  %or.cond = or i1 %5, %.not
  br i1 %or.cond, label %6, label %.loopexit

6:                                                ; preds = %1
  store i64 9223372036854775807, ptr %3, align 8, !tbaa !86
  %7 = getelementptr inbounds nuw i8, ptr %0, i64 2024
  br label %8

8:                                                ; preds = %6, %._crit_edge
  %indvars.iv = phi i64 [ 0, %6 ], [ %indvars.iv.next, %._crit_edge ]
  %9 = getelementptr inbounds nuw [63 x %struct.Curl_llist], ptr %0, i64 0, i64 %indvars.iv
  %10 = tail call ptr @Curl_llist_head(ptr noundef %9) #12
  %.not2630 = icmp eq ptr %10, null
  br i1 %.not2630, label %._crit_edge, label %.lr.ph

.lr.ph:                                           ; preds = %8, %40
  %.031 = phi ptr [ %12, %40 ], [ %10, %8 ]
  %11 = tail call ptr @Curl_node_elem(ptr noundef nonnull %.031) #12
  %12 = tail call ptr @Curl_node_next(ptr noundef nonnull %.031) #12
  %13 = getelementptr inbounds nuw i8, ptr %11, i64 104
  %14 = load i64, ptr %13, align 8, !tbaa !103
  %.not27 = icmp ne i64 %14, 0
  %15 = icmp slt i64 %14, %2
  %or.cond29 = and i1 %.not27, %15
  br i1 %or.cond29, label %16, label %35

16:                                               ; preds = %.lr.ph
  tail call void @Curl_node_remove(ptr noundef nonnull %.031) #12
  %17 = load ptr, ptr @Curl_cfree, align 8, !tbaa !84
  %18 = getelementptr inbounds nuw i8, ptr %11, i64 96
  %19 = load ptr, ptr %18, align 8, !tbaa !106
  tail call void %17(ptr noundef %19) #12
  %20 = load ptr, ptr @Curl_cfree, align 8, !tbaa !84
  %21 = getelementptr inbounds nuw i8, ptr %11, i64 80
  %22 = load ptr, ptr %21, align 8, !tbaa !102
  tail call void %20(ptr noundef %22) #12
  %23 = load ptr, ptr @Curl_cfree, align 8, !tbaa !84
  %24 = getelementptr inbounds nuw i8, ptr %11, i64 88
  %25 = load ptr, ptr %24, align 8, !tbaa !101
  tail call void %23(ptr noundef %25) #12
  %26 = load ptr, ptr @Curl_cfree, align 8, !tbaa !84
  %27 = getelementptr inbounds nuw i8, ptr %11, i64 64
  %28 = load ptr, ptr %27, align 8, !tbaa !98
  tail call void %26(ptr noundef %28) #12
  %29 = load ptr, ptr @Curl_cfree, align 8, !tbaa !84
  %30 = getelementptr inbounds nuw i8, ptr %11, i64 72
  %31 = load ptr, ptr %30, align 8, !tbaa !108
  tail call void %29(ptr noundef %31) #12
  %32 = load ptr, ptr @Curl_cfree, align 8, !tbaa !84
  tail call void %32(ptr noundef nonnull %11) #12
  %33 = load i32, ptr %7, align 8, !tbaa !114
  %34 = add i32 %33, -1
  store i32 %34, ptr %7, align 8, !tbaa !114
  br label %40

35:                                               ; preds = %.lr.ph
  %.not28 = icmp eq i64 %14, 0
  br i1 %.not28, label %40, label %36

36:                                               ; preds = %35
  %37 = load i64, ptr %3, align 8, !tbaa !86
  %38 = icmp slt i64 %14, %37
  br i1 %38, label %39, label %40

39:                                               ; preds = %36
  store i64 %14, ptr %3, align 8, !tbaa !86
  br label %40

40:                                               ; preds = %16, %39, %36, %35
  %.not26 = icmp eq ptr %12, null
  br i1 %.not26, label %._crit_edge, label %.lr.ph, !llvm.loop !115

._crit_edge:                                      ; preds = %40, %8
  %indvars.iv.next = add nuw nsw i64 %indvars.iv, 1
  %exitcond.not = icmp eq i64 %indvars.iv.next, 63
  br i1 %exitcond.not, label %.loopexit, label %8, !llvm.loop !116

.loopexit:                                        ; preds = %._crit_edge, %1
  ret void
}